target datalayout = "e-m:e-p270:32:32-p271:32:32-p272:64:64-i64:64-i128:128-f80:128-n8:16:32:64-S128"
target triple = "x86_64-pc-linux-gnu"

@mi_arena_count = internal global i64 0, align 64

; Function Attrs: nounwind uwtable
define internal i32 @mi_arena_id_create(i64 noundef %0) #0 {
  %2 = alloca i64, align 8
  store i64 %0, ptr %2, align 8, !tbaa !15
  %3 = load i64, ptr %2, align 8, !tbaa !15
  %4 = trunc i64 %3 to i32
  %5 = add nsw i32 %4, 1
  ret i32 %5
}

; Function Attrs: nounwind uwtable
define hidden i64 @mi_arena_id_index(i32 noundef %0) #0 {
  %2 = alloca i32, align 4
  store i32 %0, ptr %2, align 4, !tbaa !52
  %3 = load i32, ptr %2, align 4, !tbaa !52
  %4 = icmp sle i32 %3, 0
  br i1 %4, label %5, label %6

5:                                                ; preds = %1
  br label %9

6:                                                ; preds = %1
  %7 = load i32, ptr %2, align 4, !tbaa !52
  %8 = sub nsw i32 %7, 1
  br label %9

9:                                                ; preds = %6, %5
  %10 = phi i32 [ 132, %5 ], [ %8, %6 ]
  %11 = sext i32 %10 to i64
  ret i64 %11
}

; Function Attrs: nounwind uwtable
define hidden i32 @_mi_arena_id_none() #0 {
  ret i32 0
}

; Function Attrs: noinline nounwind uwtable
define internal ptr @mi_arena_try_alloc(i32 noundef %0, i64 noundef %1, i64 noundef %2, i1 noundef zeroext %3, i1 noundef zeroext %4, i32 noundef %5, ptr noundef %6) #6 {
  %8 = alloca ptr, align 8
  %9 = alloca i32, align 4
  %10 = alloca i64, align 8
  %11 = alloca i64, align 8
  %12 = alloca i8, align 1
  %13 = alloca i8, align 1
  %14 = alloca i32, align 4
  %15 = alloca ptr, align 8
  %16 = alloca i64, align 8
  %17 = alloca i64, align 8
  %18 = alloca i32, align 4
  %19 = alloca ptr, align 8
  %20 = alloca i64, align 8
  %21 = alloca ptr, align 8
  %22 = alloca i64, align 8
  %23 = alloca ptr, align 8
  store i32 %0, ptr %9, align 4, !tbaa !52
  store i64 %1, ptr %10, align 8, !tbaa !15
  store i64 %2, ptr %11, align 8, !tbaa !15
  %24 = zext i1 %3 to i8
  store i8 %24, ptr %12, align 1, !tbaa !21
  %25 = zext i1 %4 to i8
  store i8 %25, ptr %13, align 1, !tbaa !21
  store i32 %5, ptr %14, align 4, !tbaa !52
  store ptr %6, ptr %15, align 8, !tbaa !60
  call void @llvm.lifetime.start.p0(i64 8, ptr %16) #13
  %26 = load atomic i64, ptr @mi_arena_count monotonic, align 64
  store i64 %26, ptr %17, align 8
  %27 = load i64, ptr %17, align 8, !tbaa !15
  store i64 %27, ptr %16, align 8, !tbaa !15
  %28 = load i64, ptr %16, align 8, !tbaa !15
  %29 = icmp eq i64 %28, 0
  %30 = xor i1 %29, true
  %31 = xor i1 %30, true
  %32 = zext i1 %31 to i32
  %33 = sext i32 %32 to i64
  %34 = call i64 @llvm.expect.i64(i64 %33, i64 1)
  %35 = icmp ne i64 %34, 0
  br i1 %35, label %36, label %37

36:                                               ; preds = %7
  store ptr null, ptr %8, align 8
  store i32 1, ptr %18, align 4
  br label %137

37:                                               ; preds = %7
  %38 = load i32, ptr %14, align 4, !tbaa !52
  %39 = call i32 @_mi_arena_id_none() #12
  %40 = icmp ne i32 %38, %39
  br i1 %40, label %41, label %67

41:                                               ; preds = %37
  %42 = load i32, ptr %14, align 4, !tbaa !52
  %43 = call i64 @mi_arena_id_index(i32 noundef %42) #12
  %44 = load i64, ptr %16, align 8, !tbaa !15
  %45 = icmp ult i64 %43, %44
  br i1 %45, label %46, label %66

46:                                               ; preds = %41
  call void @llvm.lifetime.start.p0(i64 8, ptr %19) #13
  %47 = load i32, ptr %14, align 4, !tbaa !52
  %48 = load i32, ptr %9, align 4, !tbaa !52
  %49 = load i64, ptr %10, align 8, !tbaa !15
  %50 = load i64, ptr %11, align 8, !tbaa !15
  %51 = load i8, ptr %12, align 1, !tbaa !21, !range !22, !noundef !23
  %52 = trunc i8 %51 to i1
  %53 = load i8, ptr %13, align 1, !tbaa !21, !range !22, !noundef !23
  %54 = trunc i8 %53 to i1
  %55 = load i32, ptr %14, align 4, !tbaa !52
  %56 = load ptr, ptr %15, align 8, !tbaa !60
  %57 = call ptr @mi_arena_try_alloc_at_id(i32 noundef %47, i1 noundef zeroext true, i32 noundef %48, i64 noundef %49, i64 noundef %50, i1 noundef zeroext %52, i1 noundef zeroext %54, i32 noundef %55, ptr noundef %56) #12
  store ptr %57, ptr %19, align 8, !tbaa !53
  %58 = load ptr, ptr %19, align 8, !tbaa !53
  %59 = icmp ne ptr %58, null
  br i1 %59, label %60, label %62

60:                                               ; preds = %46
  %61 = load ptr, ptr %19, align 8, !tbaa !53
  store ptr %61, ptr %8, align 8
  store i32 1, ptr %18, align 4
  br label %63

62:                                               ; preds = %46
  store i32 0, ptr %18, align 4
  br label %63

63:                                               ; preds = %62, %60
  call void @llvm.lifetime.end.p0(i64 8, ptr %19) #13
  %64 = load i32, ptr %18, align 4
  switch i32 %64, label %137 [
    i32 0, label %65
  ]

65:                                               ; preds = %63
  br label %66

66:                                               ; preds = %65, %41
  br label %136

67:                                               ; preds = %37
  call void @llvm.lifetime.start.p0(i64 8, ptr %20) #13
  store i64 0, ptr %20, align 8, !tbaa !15
  br label %68

68:                                               ; preds = %94, %67
  %69 = load i64, ptr %20, align 8, !tbaa !15
  %70 = load i64, ptr %16, align 8, !tbaa !15
  %71 = icmp ult i64 %69, %70
  br i1 %71, label %73, label %72

72:                                               ; preds = %68
  store i32 2, ptr %18, align 4
  br label %97

73:                                               ; preds = %68
  call void @llvm.lifetime.start.p0(i64 8, ptr %21) #13
  %74 = load i64, ptr %20, align 8, !tbaa !15
  %75 = call i32 @mi_arena_id_create(i64 noundef %74) #12
  %76 = load i32, ptr %9, align 4, !tbaa !52
  %77 = load i64, ptr %10, align 8, !tbaa !15
  %78 = load i64, ptr %11, align 8, !tbaa !15
  %79 = load i8, ptr %12, align 1, !tbaa !21, !range !22, !noundef !23
  %80 = trunc i8 %79 to i1
  %81 = load i8, ptr %13, align 1, !tbaa !21, !range !22, !noundef !23
  %82 = trunc i8 %81 to i1
  %83 = load i32, ptr %14, align 4, !tbaa !52
  %84 = load ptr, ptr %15, align 8, !tbaa !60
  %85 = call ptr @mi_arena_try_alloc_at_id(i32 noundef %75, i1 noundef zeroext true, i32 noundef %76, i64 noundef %77, i64 noundef %78, i1 noundef zeroext %80, i1 noundef zeroext %82, i32 noundef %83, ptr noundef %84) #12
  store ptr %85, ptr %21, align 8, !tbaa !53
  %86 = load ptr, ptr %21, align 8, !tbaa !53
  %87 = icmp ne ptr %86, null
  br i1 %87, label %88, label %90

88:                                               ; preds = %73
  %89 = load ptr, ptr %21, align 8, !tbaa !53
  store ptr %89, ptr %8, align 8
  store i32 1, ptr %18, align 4
  br label %91

90:                                               ; preds = %73
  store i32 0, ptr %18, align 4
  br label %91

91:                                               ; preds = %90, %88
  call void @llvm.lifetime.end.p0(i64 8, ptr %21) #13
  %92 = load i32, ptr %18, align 4
  switch i32 %92, label %97 [
    i32 0, label %93
  ]

93:                                               ; preds = %91
  br label %94

94:                                               ; preds = %93
  %95 = load i64, ptr %20, align 8, !tbaa !15
  %96 = add i64 %95, 1
  store i64 %96, ptr %20, align 8, !tbaa !15
  br label %68, !llvm.loop !67

97:                                               ; preds = %91, %72
  call void @llvm.lifetime.end.p0(i64 8, ptr %20) #13
  %98 = load i32, ptr %18, align 4
  switch i32 %98, label %137 [
    i32 2, label %99
  ]

99:                                               ; preds = %97
  %100 = load i32, ptr %9, align 4, !tbaa !52
  %101 = icmp sge i32 %100, 0
  br i1 %101, label %102, label %135

102:                                              ; preds = %99
  call void @llvm.lifetime.start.p0(i64 8, ptr %22) #13
  store i64 0, ptr %22, align 8, !tbaa !15
  br label %103

103:                                              ; preds = %129, %102
  %104 = load i64, ptr %22, align 8, !tbaa !15
  %105 = load i64, ptr %16, align 8, !tbaa !15
  %106 = icmp ult i64 %104, %105
  br i1 %106, label %108, label %107

107:                                              ; preds = %103
  store i32 5, ptr %18, align 4
  br label %132

108:                                              ; preds = %103
  call void @llvm.lifetime.start.p0(i64 8, ptr %23) #13
  %109 = load i64, ptr %22, align 8, !tbaa !15
  %110 = call i32 @mi_arena_id_create(i64 noundef %109) #12
  %111 = load i32, ptr %9, align 4, !tbaa !52
  %112 = load i64, ptr %10, align 8, !tbaa !15
  %113 = load i64, ptr %11, align 8, !tbaa !15
  %114 = load i8, ptr %12, align 1, !tbaa !21, !range !22, !noundef !23
  %115 = trunc i8 %114 to i1
  %116 = load i8, ptr %13, align 1, !tbaa !21, !range !22, !noundef !23
  %117 = trunc i8 %116 to i1
  %118 = load i32, ptr %14, align 4, !tbaa !52
  %119 = load ptr, ptr %15, align 8, !tbaa !60
  %120 = call ptr @mi_arena_try_alloc_at_id(i32 noundef %110, i1 noundef zeroext false, i32 noundef %111, i64 noundef %112, i64 noundef %113, i1 noundef zeroext %115, i1 noundef zeroext %117, i32 noundef %118, ptr noundef %119) #12
  store ptr %120, ptr %23, align 8, !tbaa !53
  %121 = load ptr, ptr %23, align 8, !tbaa !53
  %122 = icmp ne ptr %121, null
  br i1 %122, label %123, label %125

123:                                              ; preds = %108
  %124 = load ptr, ptr %23, align 8, !tbaa !53
  store ptr %124, ptr %8, align 8
  store i32 1, ptr %18, align 4
  br label %126

125:                                              ; preds = %108
  store i32 0, ptr %18, align 4
  br label %126

126:                                              ; preds = %125, %123
  call void @llvm.lifetime.end.p0(i64 8, ptr %23) #13
  %127 = load i32, ptr %18, align 4
  switch i32 %127, label %132 [
    i32 0, label %128
  ]

128:                                              ; preds = %126
  br label %129

129:                                              ; preds = %128
  %130 = load i64, ptr %22, align 8, !tbaa !15
  %131 = add i64 %130, 1
  store i64 %131, ptr %22, align 8, !tbaa !15
  br label %103, !llvm.loop !68

132:                                              ; preds = %126, %107
  call void @llvm.lifetime.end.p0(i64 8, ptr %22) #13
  %133 = load i32, ptr %18, align 4
  switch i32 %133, label %137 [
    i32 5, label %134
  ]

134:                                              ; preds = %132
  br label %135

135:                                              ; preds = %134, %99
  br label %136

136:                                              ; preds = %135, %66
  store ptr null, ptr %8, align 8
  store i32 1, ptr %18, align 4
  br label %137

137:                                              ; preds = %136, %132, %97, %63, %36
  call void @llvm.lifetime.end.p0(i64 8, ptr %16) #13
  %138 = load ptr, ptr %8, align 8
  ret ptr %138
}