; Function Attrs: noinline nounwind uwtable
define internal fastcc ptr @mi_arena_try_alloc(i32 noundef %0, i64 noundef range(i64 2097152, 0) %1, i1 noundef zeroext %2, i1 noundef zeroext %3, i32 noundef %4, ptr noundef writeonly captures(none) %5) unnamed_addr #9 {
  %7 = load atomic i64, ptr @mi_arena_count monotonic, align 64
  %8 = icmp eq i64 %7, 0
  br i1 %8, label %.thread, label %9, !prof !14

9:                                                ; preds = %6
  %.not = icmp eq i32 %4, 0
  br i1 %.not, label %.preheader71, label %10

10:                                               ; preds = %9
  %11 = icmp slt i32 %4, 1
  %12 = add nsw i32 %4, -1
  %13 = select i1 %11, i32 132, i32 %12
  %14 = zext nneg i32 %13 to i64
  %15 = icmp ugt i64 %7, %14
  br i1 %15, label %16, label %.loopexit

16:                                               ; preds = %10
  %17 = tail call fastcc ptr @mi_arena_try_alloc_at_id(i32 noundef %4, i1 noundef zeroext true, i32 noundef %0, i64 noundef %1, i1 noundef zeroext %2, i1 noundef zeroext %3, i32 noundef %4, ptr noundef %5) #19
  %.not67 = icmp eq ptr %17, null
  br i1 %.not67, label %.loopexit, label %.thread

18:                                               ; preds = %.preheader71
  %19 = add nuw i64 %.05774, 1
  %exitcond.not = icmp eq i64 %19, %7
  br i1 %exitcond.not, label %23, label %.preheader71, !llvm.loop !50

.preheader71:                                     ; preds = %9, %18
  %.05774 = phi i64 [ %19, %18 ], [ 0, %9 ]
  %20 = trunc i64 %.05774 to i32
  %21 = add nsw i32 %20, 1
  %22 = tail call fastcc ptr @mi_arena_try_alloc_at_id(i32 noundef %21, i1 noundef zeroext true, i32 noundef %0, i64 noundef %1, i1 noundef zeroext %2, i1 noundef zeroext %3, i32 noundef 0, ptr noundef %5) #19
  %.not63 = icmp eq ptr %22, null
  br i1 %.not63, label %18, label %.thread

23:                                               ; preds = %18
  %24 = icmp sgt i32 %0, -1
  br i1 %24, label %.preheader, label %.loopexit

25:                                               ; preds = %.preheader
  %26 = add nuw i64 %.05175, 1
  %exitcond80.not = icmp eq i64 %26, %7
  br i1 %exitcond80.not, label %.loopexit, label %.preheader, !llvm.loop !51

.preheader:                                       ; preds = %23, %25
  %.05175 = phi i64 [ %26, %25 ], [ 0, %23 ]
  %27 = trunc i64 %.05175 to i32
  %28 = add nsw i32 %27, 1
  %29 = tail call fastcc ptr @mi_arena_try_alloc_at_id(i32 noundef %28, i1 noundef zeroext false, i32 noundef %0, i64 noundef %1, i1 noundef zeroext %2, i1 noundef zeroext %3, i32 noundef 0, ptr noundef %5) #19
  %.not65 = icmp eq ptr %29, null
  br i1 %.not65, label %25, label %.thread

.loopexit:                                        ; preds = %25, %23, %10, %16
  br label %.thread

.thread:                                          ; preds = %.preheader71, %.preheader, %6, %16, %.loopexit
  %.0 = phi ptr [ null, %.loopexit ], [ %17, %16 ], [ null, %6 ], [ %29, %.preheader ], [ %22, %.preheader71 ]
  ret ptr %.0
}